target datalayout = "e-m:e-p270:32:32-p271:32:32-p272:64:64-i64:64-i128:128-f80:128-n8:16:32:64-S128"
target triple = "x86_64-pc-linux-gnu"

%struct.pointf_s = type { double, double }
%struct.tgraph = type { ptr, i64, ptr, i32 }
%struct.tnode = type { i64, ptr, %struct.pointf_s }
%struct.ipair = type { i32, i32 }
%struct.tedge = type { i32, i32, %struct.ipair, double }

@stderr = external global ptr, align 8
@.str = private unnamed_addr constant [58 x i8] c"integer overflow when trying to allocate %zu * %zu bytes\0A\00", align 1
@.str.1 = private unnamed_addr constant [49 x i8] c"out of memory when trying to allocate %zu bytes\0A\00", align 1

; Function Attrs: inlinehint nounwind uwtable
define internal ptr @gv_realloc(ptr noundef %0, i64 noundef %1, i64 noundef %2) #4 {
  %4 = alloca ptr, align 8
  %5 = alloca ptr, align 8
  %6 = alloca i64, align 8
  %7 = alloca i64, align 8
  %8 = alloca ptr, align 8
  store ptr %0, ptr %5, align 8, !tbaa !18
  store i64 %1, ptr %6, align 8, !tbaa !19
  store i64 %2, ptr %7, align 8, !tbaa !19
  %9 = load i64, ptr %7, align 8, !tbaa !19
  %10 = icmp eq i64 %9, 0
  br i1 %10, label %11, label %13

11:                                               ; preds = %3
  %12 = load ptr, ptr %5, align 8, !tbaa !18
  call void @free(ptr noundef %12) #12
  store ptr null, ptr %4, align 8
  br label %36

13:                                               ; preds = %3
  call void @llvm.lifetime.start.p0(i64 8, ptr %8) #12
  %14 = load ptr, ptr %5, align 8, !tbaa !18
  %15 = load i64, ptr %7, align 8, !tbaa !19
  %16 = call ptr @realloc(ptr noundef %14, i64 noundef %15) #16
  store ptr %16, ptr %8, align 8, !tbaa !18
  %17 = load ptr, ptr %8, align 8, !tbaa !18
  %18 = icmp eq ptr %17, null
  br i1 %18, label %19, label %23

19:                                               ; preds = %13
  %20 = load ptr, ptr @stderr, align 8, !tbaa !61
  %21 = load i64, ptr %7, align 8, !tbaa !19
  %22 = call i32 (ptr, ptr, ...) @fprintf(ptr noundef %20, ptr noundef @.str.1, i64 noundef %21) #12
  call void @graphviz_exit(i32 noundef 1) #13
  unreachable

23:                                               ; preds = %13
  %24 = load i64, ptr %7, align 8, !tbaa !19
  %25 = load i64, ptr %6, align 8, !tbaa !19
  %26 = icmp ugt i64 %24, %25
  br i1 %26, label %27, label %34

27:                                               ; preds = %23
  %28 = load ptr, ptr %8, align 8, !tbaa !18
  %29 = load i64, ptr %6, align 8, !tbaa !19
  %30 = getelementptr inbounds nuw i8, ptr %28, i64 %29
  %31 = load i64, ptr %7, align 8, !tbaa !19
  %32 = load i64, ptr %6, align 8, !tbaa !19
  %33 = sub i64 %31, %32
  call void @llvm.memset.p0.i64(ptr align 1 %30, i8 0, i64 %33, i1 false)
  br label %34

34:                                               ; preds = %27, %23
  %35 = load ptr, ptr %8, align 8, !tbaa !18
  store ptr %35, ptr %4, align 8
  call void @llvm.lifetime.end.p0(i64 8, ptr %8) #12
  br label %36

36:                                               ; preds = %34, %11
  %37 = load ptr, ptr %4, align 8
  ret ptr %37
}

; Function Attrs: inlinehint nounwind uwtable
define internal ptr @gv_recalloc(ptr noundef %0, i64 noundef %1, i64 noundef %2, i64 noundef %3) #4 {
  %5 = alloca ptr, align 8
  %6 = alloca i64, align 8
  %7 = alloca i64, align 8
  %8 = alloca i64, align 8
  store ptr %0, ptr %5, align 8, !tbaa !18
  store i64 %1, ptr %6, align 8, !tbaa !19
  store i64 %2, ptr %7, align 8, !tbaa !19
  store i64 %3, ptr %8, align 8, !tbaa !19
  %9 = load i64, ptr %7, align 8, !tbaa !19
  %10 = load i64, ptr %8, align 8, !tbaa !19
  %11 = udiv i64 -1, %10
  %12 = icmp ugt i64 %9, %11
  br i1 %12, label %13, label %18

13:                                               ; preds = %4
  %14 = load ptr, ptr @stderr, align 8, !tbaa !61
  %15 = load i64, ptr %7, align 8, !tbaa !19
  %16 = load i64, ptr %8, align 8, !tbaa !19
  %17 = call i32 (ptr, ptr, ...) @fprintf(ptr noundef %14, ptr noundef @.str, i64 noundef %15, i64 noundef %16) #12
  call void @graphviz_exit(i32 noundef 1) #13
  unreachable

18:                                               ; preds = %4
  %19 = load ptr, ptr %5, align 8, !tbaa !18
  %20 = load i64, ptr %6, align 8, !tbaa !19
  %21 = load i64, ptr %8, align 8, !tbaa !19
  %22 = mul i64 %20, %21
  %23 = load i64, ptr %7, align 8, !tbaa !19
  %24 = load i64, ptr %8, align 8, !tbaa !19
  %25 = mul i64 %23, %24
  %26 = call ptr @gv_realloc(ptr noundef %19, i64 noundef %22, i64 noundef %25)
  ret ptr %26
}

; Function Attrs: nounwind uwtable
define internal void @addTriEdge(ptr noundef %0, i32 noundef %1, i32 noundef %2, i64 %3) #0 {
  %5 = alloca %struct.ipair, align 4
  %6 = alloca ptr, align 8
  %7 = alloca i32, align 4
  %8 = alloca i32, align 4
  %9 = alloca ptr, align 8
  %10 = alloca ptr, align 8
  %11 = alloca ptr, align 8
  store i64 %3, ptr %5, align 4
  store ptr %0, ptr %6, align 8, !tbaa !18
  store i32 %1, ptr %7, align 4, !tbaa !33
  store i32 %2, ptr %8, align 4, !tbaa !33
  %12 = load ptr, ptr %6, align 8, !tbaa !18
  %13 = getelementptr inbounds nuw %struct.tgraph, ptr %12, i32 0, i32 2
  %14 = load ptr, ptr %13, align 8, !tbaa !30
  %15 = load ptr, ptr %6, align 8, !tbaa !18
  %16 = getelementptr inbounds nuw %struct.tgraph, ptr %15, i32 0, i32 3
  %17 = load i32, ptr %16, align 8, !tbaa !86
  %18 = sext i32 %17 to i64
  %19 = load ptr, ptr %6, align 8, !tbaa !18
  %20 = getelementptr inbounds nuw %struct.tgraph, ptr %19, i32 0, i32 3
  %21 = load i32, ptr %20, align 8, !tbaa !86
  %22 = add nsw i32 %21, 1
  %23 = sext i32 %22 to i64
  %24 = call ptr @gv_recalloc(ptr noundef %14, i64 noundef %18, i64 noundef %23, i64 noundef 24)
  %25 = load ptr, ptr %6, align 8, !tbaa !18
  %26 = getelementptr inbounds nuw %struct.tgraph, ptr %25, i32 0, i32 2
  store ptr %24, ptr %26, align 8, !tbaa !30
  call void @llvm.lifetime.start.p0(i64 8, ptr %9) #12
  %27 = load ptr, ptr %6, align 8, !tbaa !18
  %28 = getelementptr inbounds nuw %struct.tgraph, ptr %27, i32 0, i32 2
  %29 = load ptr, ptr %28, align 8, !tbaa !30
  %30 = load ptr, ptr %6, align 8, !tbaa !18
  %31 = getelementptr inbounds nuw %struct.tgraph, ptr %30, i32 0, i32 3
  %32 = load i32, ptr %31, align 8, !tbaa !86
  %33 = sext i32 %32 to i64
  %34 = getelementptr inbounds %struct.tedge, ptr %29, i64 %33
  store ptr %34, ptr %9, align 8, !tbaa !18
  call void @llvm.lifetime.start.p0(i64 8, ptr %10) #12
  %35 = load ptr, ptr %6, align 8, !tbaa !18
  %36 = getelementptr inbounds nuw %struct.tgraph, ptr %35, i32 0, i32 0
  %37 = load ptr, ptr %36, align 8, !tbaa !23
  %38 = load i32, ptr %7, align 4, !tbaa !33
  %39 = sext i32 %38 to i64
  %40 = getelementptr inbounds %struct.tnode, ptr %37, i64 %39
  store ptr %40, ptr %10, align 8, !tbaa !18
  call void @llvm.lifetime.start.p0(i64 8, ptr %11) #12
  %41 = load ptr, ptr %6, align 8, !tbaa !18
  %42 = getelementptr inbounds nuw %struct.tgraph, ptr %41, i32 0, i32 0
  %43 = load ptr, ptr %42, align 8, !tbaa !23
  %44 = load i32, ptr %8, align 4, !tbaa !33
  %45 = sext i32 %44 to i64
  %46 = getelementptr inbounds %struct.tnode, ptr %43, i64 %45
  store ptr %46, ptr %11, align 8, !tbaa !18
  %47 = load i32, ptr %7, align 4, !tbaa !33
  %48 = load ptr, ptr %9, align 8, !tbaa !18
  %49 = getelementptr inbounds nuw %struct.tedge, ptr %48, i32 0, i32 0
  store i32 %47, ptr %49, align 8, !tbaa !124
  %50 = load i32, ptr %8, align 4, !tbaa !33
  %51 = load ptr, ptr %9, align 8, !tbaa !18
  %52 = getelementptr inbounds nuw %struct.tedge, ptr %51, i32 0, i32 1
  store i32 %50, ptr %52, align 4, !tbaa !126
  %53 = load ptr, ptr %10, align 8, !tbaa !18
  %54 = getelementptr inbounds nuw %struct.tnode, ptr %53, i32 0, i32 2
  %55 = getelementptr inbounds nuw %struct.pointf_s, ptr %54, i32 0, i32 0
  %56 = load double, ptr %55, align 8, !tbaa !175
  %57 = load ptr, ptr %11, align 8, !tbaa !18
  %58 = getelementptr inbounds nuw %struct.tnode, ptr %57, i32 0, i32 2
  %59 = getelementptr inbounds nuw %struct.pointf_s, ptr %58, i32 0, i32 0
  %60 = load double, ptr %59, align 8, !tbaa !175
  %61 = fsub double %56, %60
  %62 = load ptr, ptr %10, align 8, !tbaa !18
  %63 = getelementptr inbounds nuw %struct.tnode, ptr %62, i32 0, i32 2
  %64 = getelementptr inbounds nuw %struct.pointf_s, ptr %63, i32 0, i32 0
  %65 = load double, ptr %64, align 8, !tbaa !175
  %66 = load ptr, ptr %11, align 8, !tbaa !18
  %67 = getelementptr inbounds nuw %struct.tnode, ptr %66, i32 0, i32 2
  %68 = getelementptr inbounds nuw %struct.pointf_s, ptr %67, i32 0, i32 0
  %69 = load double, ptr %68, align 8, !tbaa !175
  %70 = fsub double %65, %69
  %71 = load ptr, ptr %10, align 8, !tbaa !18
  %72 = getelementptr inbounds nuw %struct.tnode, ptr %71, i32 0, i32 2
  %73 = getelementptr inbounds nuw %struct.pointf_s, ptr %72, i32 0, i32 1
  %74 = load double, ptr %73, align 8, !tbaa !176
  %75 = load ptr, ptr %11, align 8, !tbaa !18
  %76 = getelementptr inbounds nuw %struct.tnode, ptr %75, i32 0, i32 2
  %77 = getelementptr inbounds nuw %struct.pointf_s, ptr %76, i32 0, i32 1
  %78 = load double, ptr %77, align 8, !tbaa !176
  %79 = fsub double %74, %78
  %80 = load ptr, ptr %10, align 8, !tbaa !18
  %81 = getelementptr inbounds nuw %struct.tnode, ptr %80, i32 0, i32 2
  %82 = getelementptr inbounds nuw %struct.pointf_s, ptr %81, i32 0, i32 1
  %83 = load double, ptr %82, align 8, !tbaa !176
  %84 = load ptr, ptr %11, align 8, !tbaa !18
  %85 = getelementptr inbounds nuw %struct.tnode, ptr %84, i32 0, i32 2
  %86 = getelementptr inbounds nuw %struct.pointf_s, ptr %85, i32 0, i32 1
  %87 = load double, ptr %86, align 8, !tbaa !176
  %88 = fsub double %83, %87
  %89 = fmul double %79, %88
  %90 = call double @llvm.fmuladd.f64(double %61, double %70, double %89)
  %91 = call double @sqrt(double noundef %90) #12, !tbaa !33
  %92 = load ptr, ptr %9, align 8, !tbaa !18
  %93 = getelementptr inbounds nuw %struct.tedge, ptr %92, i32 0, i32 3
  store double %91, ptr %93, align 8, !tbaa !127
  %94 = load ptr, ptr %9, align 8, !tbaa !18
  %95 = getelementptr inbounds nuw %struct.tedge, ptr %94, i32 0, i32 2
  call void @llvm.memcpy.p0.p0.i64(ptr align 8 %95, ptr align 4 %5, i64 8, i1 false), !tbaa.struct !131
  %96 = load ptr, ptr %10, align 8, !tbaa !18
  %97 = getelementptr inbounds nuw %struct.tnode, ptr %96, i32 0, i32 1
  %98 = load ptr, ptr %97, align 8, !tbaa !24
  %99 = load ptr, ptr %10, align 8, !tbaa !18
  %100 = getelementptr inbounds nuw %struct.tnode, ptr %99, i32 0, i32 0
  %101 = load i64, ptr %100, align 8, !tbaa !89
  %102 = load ptr, ptr %10, align 8, !tbaa !18
  %103 = getelementptr inbounds nuw %struct.tnode, ptr %102, i32 0, i32 0
  %104 = load i64, ptr %103, align 8, !tbaa !89
  %105 = add i64 %104, 1
  %106 = call ptr @gv_recalloc(ptr noundef %98, i64 noundef %101, i64 noundef %105, i64 noundef 4)
  %107 = load ptr, ptr %10, align 8, !tbaa !18
  %108 = getelementptr inbounds nuw %struct.tnode, ptr %107, i32 0, i32 1
  store ptr %106, ptr %108, align 8, !tbaa !24
  %109 = load ptr, ptr %6, align 8, !tbaa !18
  %110 = getelementptr inbounds nuw %struct.tgraph, ptr %109, i32 0, i32 3
  %111 = load i32, ptr %110, align 8, !tbaa !86
  %112 = load ptr, ptr %10, align 8, !tbaa !18
  %113 = getelementptr inbounds nuw %struct.tnode, ptr %112, i32 0, i32 1
  %114 = load ptr, ptr %113, align 8, !tbaa !24
  %115 = load ptr, ptr %10, align 8, !tbaa !18
  %116 = getelementptr inbounds nuw %struct.tnode, ptr %115, i32 0, i32 0
  %117 = load i64, ptr %116, align 8, !tbaa !89
  %118 = add i64 %117, 1
  store i64 %118, ptr %116, align 8, !tbaa !89
  %119 = getelementptr inbounds nuw i32, ptr %114, i64 %117
  store i32 %111, ptr %119, align 4, !tbaa !33
  %120 = load ptr, ptr %11, align 8, !tbaa !18
  %121 = getelementptr inbounds nuw %struct.tnode, ptr %120, i32 0, i32 1
  %122 = load ptr, ptr %121, align 8, !tbaa !24
  %123 = load ptr, ptr %11, align 8, !tbaa !18
  %124 = getelementptr inbounds nuw %struct.tnode, ptr %123, i32 0, i32 0
  %125 = load i64, ptr %124, align 8, !tbaa !89
  %126 = load ptr, ptr %11, align 8, !tbaa !18
  %127 = getelementptr inbounds nuw %struct.tnode, ptr %126, i32 0, i32 0
  %128 = load i64, ptr %127, align 8, !tbaa !89
  %129 = add i64 %128, 1
  %130 = call ptr @gv_recalloc(ptr noundef %122, i64 noundef %125, i64 noundef %129, i64 noundef 4)
  %131 = load ptr, ptr %11, align 8, !tbaa !18
  %132 = getelementptr inbounds nuw %struct.tnode, ptr %131, i32 0, i32 1
  store ptr %130, ptr %132, align 8, !tbaa !24
  %133 = load ptr, ptr %6, align 8, !tbaa !18
  %134 = getelementptr inbounds nuw %struct.tgraph, ptr %133, i32 0, i32 3
  %135 = load i32, ptr %134, align 8, !tbaa !86
  %136 = load ptr, ptr %11, align 8, !tbaa !18
  %137 = getelementptr inbounds nuw %struct.tnode, ptr %136, i32 0, i32 1
  %138 = load ptr, ptr %137, align 8, !tbaa !24
  %139 = load ptr, ptr %11, align 8, !tbaa !18
  %140 = getelementptr inbounds nuw %struct.tnode, ptr %139, i32 0, i32 0
  %141 = load i64, ptr %140, align 8, !tbaa !89
  %142 = add i64 %141, 1
  store i64 %142, ptr %140, align 8, !tbaa !89
  %143 = getelementptr inbounds nuw i32, ptr %138, i64 %141
  store i32 %135, ptr %143, align 4, !tbaa !33
  %144 = load ptr, ptr %6, align 8, !tbaa !18
  %145 = getelementptr inbounds nuw %struct.tgraph, ptr %144, i32 0, i32 3
  %146 = load i32, ptr %145, align 8, !tbaa !86
  %147 = add nsw i32 %146, 1
  store i32 %147, ptr %145, align 8, !tbaa !86
  call void @llvm.lifetime.end.p0(i64 8, ptr %11) #12
  call void @llvm.lifetime.end.p0(i64 8, ptr %10) #12
  call void @llvm.lifetime.end.p0(i64 8, ptr %9) #12
  ret void
}