; Function Attrs: nounwind uwtable
define internal fastcc void @addTriEdge(ptr noundef captures(none) %0, i32 noundef %1, i32 noundef %2, i64 %3) unnamed_addr #0 {
  %5 = getelementptr inbounds nuw i8, ptr %0, i64 16
  %6 = load ptr, ptr %5, align 8, !tbaa !26
  %7 = getelementptr inbounds nuw i8, ptr %0, i64 24
  %8 = load i32, ptr %7, align 8, !tbaa !75
  %9 = add nsw i32 %8, 1
  %10 = sext i32 %9 to i64
  %mul.ov.i = icmp slt i32 %8, -1
  br i1 %mul.ov.i, label %11, label %14

11:                                               ; preds = %4
  %12 = load ptr, ptr @stderr, align 8, !tbaa !27
  %13 = tail call i32 (ptr, ptr, ...) @fprintf(ptr noundef %12, ptr noundef nonnull @.str, i64 noundef %10, i64 noundef 24) #20
  tail call fastcc void @graphviz_exit() #21
  unreachable

14:                                               ; preds = %4
  %15 = sext i32 %8 to i64
  %16 = mul nsw i64 %15, 24
  %17 = mul nsw i64 %10, 24
  %18 = icmp eq i32 %9, 0
  br i1 %18, label %19, label %20

19:                                               ; preds = %14
  tail call void @free(ptr noundef %6) #18
  br label %gv_recalloc.exit

20:                                               ; preds = %14
  %21 = tail call ptr @realloc(ptr noundef %6, i64 noundef %17) #23
  %22 = icmp eq ptr %21, null
  br i1 %22, label %23, label %26

23:                                               ; preds = %20
  %24 = load ptr, ptr @stderr, align 8, !tbaa !27
  %25 = tail call i32 (ptr, ptr, ...) @fprintf(ptr noundef %24, ptr noundef nonnull @.str.1, i64 noundef %17) #20
  tail call fastcc void @graphviz_exit() #21
  unreachable

26:                                               ; preds = %20
  %27 = icmp ugt i64 %17, %16
  br i1 %27, label %28, label %gv_recalloc.exit

28:                                               ; preds = %26
  %29 = getelementptr inbounds nuw i8, ptr %21, i64 %16
  %30 = sub nuw nsw i64 %17, %16
  tail call void @llvm.memset.p0.i64(ptr noundef nonnull align 1 dereferenceable(1) %29, i8 0, i64 %30, i1 false)
  br label %gv_recalloc.exit

gv_recalloc.exit:                                 ; preds = %19, %26, %28
  %.0.i.i = phi ptr [ null, %19 ], [ %21, %28 ], [ %21, %26 ]
  store ptr %.0.i.i, ptr %5, align 8, !tbaa !26
  %31 = load i32, ptr %7, align 8, !tbaa !75
  %32 = sext i32 %31 to i64
  %33 = getelementptr inbounds %struct.tedge, ptr %.0.i.i, i64 %32
  %34 = load ptr, ptr %0, align 8, !tbaa !19
  %35 = sext i32 %1 to i64
  %36 = getelementptr inbounds %struct.tnode, ptr %34, i64 %35
  %37 = sext i32 %2 to i64
  %38 = getelementptr inbounds %struct.tnode, ptr %34, i64 %37
  store i32 %1, ptr %33, align 8, !tbaa !101
  %39 = getelementptr inbounds nuw i8, ptr %33, i64 4
  store i32 %2, ptr %39, align 4, !tbaa !104
  %40 = getelementptr inbounds nuw i8, ptr %36, i64 16
  %41 = load double, ptr %40, align 8, !tbaa !154
  %42 = getelementptr inbounds nuw i8, ptr %38, i64 16
  %43 = load double, ptr %42, align 8, !tbaa !154
  %44 = fsub double %41, %43
  %45 = getelementptr inbounds nuw i8, ptr %36, i64 24
  %46 = load double, ptr %45, align 8, !tbaa !155
  %47 = getelementptr inbounds nuw i8, ptr %38, i64 24
  %48 = load double, ptr %47, align 8, !tbaa !155
  %49 = fsub double %46, %48
  %50 = fmul double %49, %49
  %51 = tail call double @llvm.fmuladd.f64(double %44, double %44, double %50)
  %sqrt = tail call double @llvm.sqrt.f64(double %51)
  %52 = getelementptr inbounds nuw i8, ptr %33, i64 16
  store double %sqrt, ptr %52, align 8, !tbaa !105
  %53 = getelementptr inbounds nuw i8, ptr %33, i64 8
  store i64 %3, ptr %53, align 8
  %54 = getelementptr inbounds nuw i8, ptr %36, i64 8
  %55 = load ptr, ptr %54, align 8, !tbaa !20
  %56 = load i64, ptr %36, align 8, !tbaa !100
  %57 = add i64 %56, 1
  %mul.ov.i39 = icmp ugt i64 %57, 4611686018427387903
  br i1 %mul.ov.i39, label %58, label %61

58:                                               ; preds = %gv_recalloc.exit
  %59 = load ptr, ptr @stderr, align 8, !tbaa !27
  %60 = tail call i32 (ptr, ptr, ...) @fprintf(ptr noundef %59, ptr noundef nonnull @.str, i64 noundef %57, i64 noundef 4) #20
  tail call fastcc void @graphviz_exit() #21
  unreachable

61:                                               ; preds = %gv_recalloc.exit
  %62 = shl i64 %56, 2
  %63 = shl nuw i64 %57, 2
  %64 = icmp eq i64 %57, 0
  br i1 %64, label %65, label %66

65:                                               ; preds = %61
  tail call void @free(ptr noundef %55) #18
  br label %gv_recalloc.exit41

66:                                               ; preds = %61
  %67 = tail call ptr @realloc(ptr noundef %55, i64 noundef %63) #23
  %68 = icmp eq ptr %67, null
  br i1 %68, label %69, label %72

69:                                               ; preds = %66
  %70 = load ptr, ptr @stderr, align 8, !tbaa !27
  %71 = tail call i32 (ptr, ptr, ...) @fprintf(ptr noundef %70, ptr noundef nonnull @.str.1, i64 noundef %63) #20
  tail call fastcc void @graphviz_exit() #21
  unreachable

72:                                               ; preds = %66
  %73 = icmp ugt i64 %63, %62
  br i1 %73, label %74, label %gv_recalloc.exit41

74:                                               ; preds = %72
  %75 = getelementptr inbounds nuw i8, ptr %67, i64 %62
  store i32 0, ptr %75, align 1
  br label %gv_recalloc.exit41

gv_recalloc.exit41:                               ; preds = %65, %72, %74
  %.0.i.i40 = phi ptr [ null, %65 ], [ %67, %74 ], [ %67, %72 ]
  store ptr %.0.i.i40, ptr %54, align 8, !tbaa !20
  %76 = load i32, ptr %7, align 8, !tbaa !75
  %77 = load i64, ptr %36, align 8, !tbaa !100
  %78 = add i64 %77, 1
  store i64 %78, ptr %36, align 8, !tbaa !100
  %79 = getelementptr inbounds nuw i32, ptr %.0.i.i40, i64 %77
  store i32 %76, ptr %79, align 4, !tbaa !42
  %80 = getelementptr inbounds nuw i8, ptr %38, i64 8
  %81 = load ptr, ptr %80, align 8, !tbaa !20
  %82 = load i64, ptr %38, align 8, !tbaa !100
  %83 = add i64 %82, 1
  %mul.ov.i43 = icmp ugt i64 %83, 4611686018427387903
  br i1 %mul.ov.i43, label %84, label %87

84:                                               ; preds = %gv_recalloc.exit41
  %85 = load ptr, ptr @stderr, align 8, !tbaa !27
  %86 = tail call i32 (ptr, ptr, ...) @fprintf(ptr noundef %85, ptr noundef nonnull @.str, i64 noundef %83, i64 noundef 4) #20
  tail call fastcc void @graphviz_exit() #21
  unreachable

87:                                               ; preds = %gv_recalloc.exit41
  %88 = shl i64 %82, 2
  %89 = shl nuw i64 %83, 2
  %90 = icmp eq i64 %83, 0
  br i1 %90, label %91, label %92

91:                                               ; preds = %87
  tail call void @free(ptr noundef %81) #18
  br label %gv_recalloc.exit45

92:                                               ; preds = %87
  %93 = tail call ptr @realloc(ptr noundef %81, i64 noundef %89) #23
  %94 = icmp eq ptr %93, null
  br i1 %94, label %95, label %98

95:                                               ; preds = %92
  %96 = load ptr, ptr @stderr, align 8, !tbaa !27
  %97 = tail call i32 (ptr, ptr, ...) @fprintf(ptr noundef %96, ptr noundef nonnull @.str.1, i64 noundef %89) #20
  tail call fastcc void @graphviz_exit() #21
  unreachable

98:                                               ; preds = %92
  %99 = icmp ugt i64 %89, %88
  br i1 %99, label %100, label %gv_recalloc.exit45

100:                                              ; preds = %98
  %101 = getelementptr inbounds nuw i8, ptr %93, i64 %88
  store i32 0, ptr %101, align 1
  br label %gv_recalloc.exit45

gv_recalloc.exit45:                               ; preds = %91, %98, %100
  %.0.i.i44 = phi ptr [ null, %91 ], [ %93, %100 ], [ %93, %98 ]
  store ptr %.0.i.i44, ptr %80, align 8, !tbaa !20
  %102 = load i32, ptr %7, align 8, !tbaa !75
  %103 = load i64, ptr %38, align 8, !tbaa !100
  %104 = add i64 %103, 1
  store i64 %104, ptr %38, align 8, !tbaa !100
  %105 = getelementptr inbounds nuw i32, ptr %.0.i.i44, i64 %103
  store i32 %102, ptr %105, align 4, !tbaa !42
  %106 = add nsw i32 %102, 1
  store i32 %106, ptr %7, align 8, !tbaa !75
  ret void
}